; Function Attrs: mustprogress nofree norecurse nosync nounwind willreturn memory(argmem: write) uwtable
define hidden void @_ZN16bound_propagator16reset_statisticsEv(ptr nocapture noundef nonnull writeonly align 8 dereferenceable(280) %this) local_unnamed_addr #4 align 2 {
entry:
  %m_conflicts = getelementptr inbounds i8, ptr %this, i64 256
  store i32 0, ptr %m_conflicts, align 8
  %m_propagations = getelementptr inbounds i8, ptr %this, i64 260
  store i32 0, ptr %m_propagations, align 4
  %m_false_alarms = getelementptr inbounds i8, ptr %this, i64 264
  store i32 0, ptr %m_false_alarms, align 8
  ret void
}